target datalayout = "e-m:e-p270:32:32-p271:32:32-p272:64:64-i64:64-i128:128-f80:128-n8:16:32:64-S128"
target triple = "x86_64-pc-linux-gnu"

@.str.60 = private unnamed_addr constant [1 x i8] zeroinitializer, align 1
@git_gettext_enabled = external global i32, align 4
@.str.104 = private unnamed_addr constant [29 x i8] c"read error while indexing %s\00", align 1
@.str.105 = private unnamed_addr constant [10 x i8] c"<unknown>\00", align 1
@.str.106 = private unnamed_addr constant [29 x i8] c"short read while indexing %s\00", align 1

; Function Attrs: inlinehint nounwind uwtable
define internal i32 @const_error() #7 {
  ret i32 -1
}

; Function Attrs: inlinehint nounwind uwtable
define internal ptr @_(ptr noundef %0) #7 {
  %2 = alloca ptr, align 8
  %3 = alloca ptr, align 8
  store ptr %0, ptr %3, align 8, !tbaa !12
  %4 = load ptr, ptr %3, align 8, !tbaa !12
  %5 = load i8, ptr %4, align 1, !tbaa !58
  %6 = icmp ne i8 %5, 0
  br i1 %6, label %8, label %7

7:                                                ; preds = %1
  store ptr @.str.60, ptr %2, align 8
  br label %16

8:                                                ; preds = %1
  %9 = load i32, ptr @git_gettext_enabled, align 4, !tbaa !43
  %10 = icmp ne i32 %9, 0
  br i1 %10, label %13, label %11

11:                                               ; preds = %8
  %12 = load ptr, ptr %3, align 8, !tbaa !12
  store ptr %12, ptr %2, align 8
  br label %16

13:                                               ; preds = %8
  %14 = load ptr, ptr %3, align 8, !tbaa !12
  %15 = call ptr @dcgettext(ptr noundef null, ptr noundef %14, i32 noundef 5) #14
  store ptr %15, ptr %2, align 8
  br label %16

16:                                               ; preds = %13, %11, %7
  %17 = load ptr, ptr %2, align 8
  ret ptr %17
}

; Function Attrs: nounwind uwtable
define internal i32 @index_core(ptr noundef %0, ptr noundef %1, i32 noundef %2, i64 noundef %3, i32 noundef %4, ptr noundef %5, i32 noundef %6) #0 {
  %8 = alloca ptr, align 8
  %9 = alloca ptr, align 8
  %10 = alloca i32, align 4
  %11 = alloca i64, align 8
  %12 = alloca i32, align 4
  %13 = alloca ptr, align 8
  %14 = alloca i32, align 4
  %15 = alloca i32, align 4
  %16 = alloca ptr, align 8
  %17 = alloca i64, align 8
  %18 = alloca ptr, align 8
  store ptr %0, ptr %8, align 8, !tbaa !177
  store ptr %1, ptr %9, align 8, !tbaa !14
  store i32 %2, ptr %10, align 4, !tbaa !43
  store i64 %3, ptr %11, align 8, !tbaa !10
  store i32 %4, ptr %12, align 4, !tbaa !43
  store ptr %5, ptr %13, align 8, !tbaa !12
  store i32 %6, ptr %14, align 4, !tbaa !43
  call void @llvm.lifetime.start.p0(i64 4, ptr %15) #14
  %19 = load i64, ptr %11, align 8, !tbaa !10
  %20 = icmp ne i64 %19, 0
  br i1 %20, label %29, label %21

21:                                               ; preds = %7
  %22 = load ptr, ptr %8, align 8, !tbaa !177
  %23 = load ptr, ptr %9, align 8, !tbaa !14
  %24 = load i64, ptr %11, align 8, !tbaa !10
  %25 = load i32, ptr %12, align 4, !tbaa !43
  %26 = load ptr, ptr %13, align 8, !tbaa !12
  %27 = load i32, ptr %14, align 4, !tbaa !43
  %28 = call i32 @index_mem(ptr noundef %22, ptr noundef %23, ptr noundef @.str.60, i64 noundef %24, i32 noundef %25, ptr noundef %26, i32 noundef %27)
  store i32 %28, ptr %15, align 4, !tbaa !43
  br label %95

29:                                               ; preds = %7
  %30 = load i64, ptr %11, align 8, !tbaa !10
  %31 = icmp ule i64 %30, 32768
  br i1 %31, label %32, label %79

32:                                               ; preds = %29
  call void @llvm.lifetime.start.p0(i64 8, ptr %16) #14
  %33 = load i64, ptr %11, align 8, !tbaa !10
  %34 = call ptr @xmalloc(i64 noundef %33)
  store ptr %34, ptr %16, align 8, !tbaa !12
  call void @llvm.lifetime.start.p0(i64 8, ptr %17) #14
  %35 = load i32, ptr %10, align 4, !tbaa !43
  %36 = load ptr, ptr %16, align 8, !tbaa !12
  %37 = load i64, ptr %11, align 8, !tbaa !10
  %38 = call i64 @read_in_full(i32 noundef %35, ptr noundef %36, i64 noundef %37)
  store i64 %38, ptr %17, align 8, !tbaa !10
  %39 = load i64, ptr %17, align 8, !tbaa !10
  %40 = icmp slt i64 %39, 0
  br i1 %40, label %41, label %52

41:                                               ; preds = %32
  %42 = call ptr @_(ptr noundef @.str.104)
  %43 = load ptr, ptr %13, align 8, !tbaa !12
  %44 = icmp ne ptr %43, null
  br i1 %44, label %45, label %47

45:                                               ; preds = %41
  %46 = load ptr, ptr %13, align 8, !tbaa !12
  br label %48

47:                                               ; preds = %41
  br label %48

48:                                               ; preds = %47, %45
  %49 = phi ptr [ %46, %45 ], [ @.str.105, %47 ]
  %50 = call i32 (ptr, ...) @error_errno(ptr noundef %42, ptr noundef %49)
  %51 = call i32 @const_error()
  store i32 %51, ptr %15, align 4, !tbaa !43
  br label %77

52:                                               ; preds = %32
  %53 = load i64, ptr %17, align 8, !tbaa !10
  %54 = load i64, ptr %11, align 8, !tbaa !10
  %55 = icmp ne i64 %53, %54
  br i1 %55, label %56, label %67

56:                                               ; preds = %52
  %57 = call ptr @_(ptr noundef @.str.106)
  %58 = load ptr, ptr %13, align 8, !tbaa !12
  %59 = icmp ne ptr %58, null
  br i1 %59, label %60, label %62

60:                                               ; preds = %56
  %61 = load ptr, ptr %13, align 8, !tbaa !12
  br label %63

62:                                               ; preds = %56
  br label %63

63:                                               ; preds = %62, %60
  %64 = phi ptr [ %61, %60 ], [ @.str.105, %62 ]
  %65 = call i32 (ptr, ...) @error(ptr noundef %57, ptr noundef %64)
  %66 = call i32 @const_error()
  store i32 %66, ptr %15, align 4, !tbaa !43
  br label %76

67:                                               ; preds = %52
  %68 = load ptr, ptr %8, align 8, !tbaa !177
  %69 = load ptr, ptr %9, align 8, !tbaa !14
  %70 = load ptr, ptr %16, align 8, !tbaa !12
  %71 = load i64, ptr %11, align 8, !tbaa !10
  %72 = load i32, ptr %12, align 4, !tbaa !43
  %73 = load ptr, ptr %13, align 8, !tbaa !12
  %74 = load i32, ptr %14, align 4, !tbaa !43
  %75 = call i32 @index_mem(ptr noundef %68, ptr noundef %69, ptr noundef %70, i64 noundef %71, i32 noundef %72, ptr noundef %73, i32 noundef %74)
  store i32 %75, ptr %15, align 4, !tbaa !43
  br label %76

76:                                               ; preds = %67, %63
  br label %77

77:                                               ; preds = %76, %48
  %78 = load ptr, ptr %16, align 8, !tbaa !12
  call void @free(ptr noundef %78) #14
  call void @llvm.lifetime.end.p0(i64 8, ptr %17) #14
  call void @llvm.lifetime.end.p0(i64 8, ptr %16) #14
  br label %94

79:                                               ; preds = %29
  call void @llvm.lifetime.start.p0(i64 8, ptr %18) #14
  %80 = load i64, ptr %11, align 8, !tbaa !10
  %81 = load i32, ptr %10, align 4, !tbaa !43
  %82 = call ptr @xmmap(ptr noundef null, i64 noundef %80, i32 noundef 1, i32 noundef 2, i32 noundef %81, i64 noundef 0)
  store ptr %82, ptr %18, align 8, !tbaa !9
  %83 = load ptr, ptr %8, align 8, !tbaa !177
  %84 = load ptr, ptr %9, align 8, !tbaa !14
  %85 = load ptr, ptr %18, align 8, !tbaa !9
  %86 = load i64, ptr %11, align 8, !tbaa !10
  %87 = load i32, ptr %12, align 4, !tbaa !43
  %88 = load ptr, ptr %13, align 8, !tbaa !12
  %89 = load i32, ptr %14, align 4, !tbaa !43
  %90 = call i32 @index_mem(ptr noundef %83, ptr noundef %84, ptr noundef %85, i64 noundef %86, i32 noundef %87, ptr noundef %88, i32 noundef %89)
  store i32 %90, ptr %15, align 4, !tbaa !43
  %91 = load ptr, ptr %18, align 8, !tbaa !9
  %92 = load i64, ptr %11, align 8, !tbaa !10
  %93 = call i32 @munmap(ptr noundef %91, i64 noundef %92) #14
  call void @llvm.lifetime.end.p0(i64 8, ptr %18) #14
  br label %94

94:                                               ; preds = %79, %77
  br label %95

95:                                               ; preds = %94, %21
  %96 = load i32, ptr %15, align 4, !tbaa !43
  call void @llvm.lifetime.end.p0(i64 4, ptr %15) #14
  ret i32 %96
}