; Function Attrs: nounwind uwtable
define internal fastcc i32 @index_core(ptr noundef %0, ptr noundef %1, i32 noundef %2, i64 noundef range(i64 0, -9223372036854775808) %3, i32 noundef %4, ptr noundef %5, i32 noundef %6) unnamed_addr #1 {
  %.not = icmp eq i64 %3, 0
  br i1 %.not, label %8, label %10

8:                                                ; preds = %7
  %9 = tail call fastcc i32 @index_mem(ptr noundef %0, ptr noundef %1, ptr noundef nonnull @.str.60, i64 noundef 0, i32 noundef %4, ptr noundef %5, i32 noundef %6)
  br label %36

10:                                               ; preds = %7
  %11 = icmp samesign ult i64 %3, 32769
  br i1 %11, label %12, label %32

12:                                               ; preds = %10
  %13 = tail call ptr @xmalloc(i64 noundef %3) #27
  %14 = tail call i64 @read_in_full(i32 noundef %2, ptr noundef %13, i64 noundef %3) #27
  %15 = icmp slt i64 %14, 0
  br i1 %15, label %16, label %22

16:                                               ; preds = %12
  %17 = load i32, ptr @git_gettext_enabled, align 4, !tbaa !44
  %.not4.i = icmp eq i32 %17, 0
  br i1 %.not4.i, label %_.exit, label %18

18:                                               ; preds = %16
  %19 = tail call ptr @dcgettext(ptr noundef null, ptr noundef nonnull @.str.104, i32 noundef 5) #27
  br label %_.exit

_.exit:                                           ; preds = %16, %18
  %.0.i = phi ptr [ %19, %18 ], [ @.str.104, %16 ]
  %.not42 = icmp eq ptr %5, null
  %20 = select i1 %.not42, ptr @.str.105, ptr %5
  %21 = tail call i32 (ptr, ...) @error_errno(ptr noundef %.0.i, ptr noundef nonnull %20) #27
  br label %31

22:                                               ; preds = %12
  %.not40 = icmp eq i64 %14, %3
  br i1 %.not40, label %29, label %23

23:                                               ; preds = %22
  %24 = load i32, ptr @git_gettext_enabled, align 4, !tbaa !44
  %.not4.i43 = icmp eq i32 %24, 0
  br i1 %.not4.i43, label %_.exit45, label %25

25:                                               ; preds = %23
  %26 = tail call ptr @dcgettext(ptr noundef null, ptr noundef nonnull @.str.106, i32 noundef 5) #27
  br label %_.exit45

_.exit45:                                         ; preds = %23, %25
  %.0.i44 = phi ptr [ %26, %25 ], [ @.str.106, %23 ]
  %.not41 = icmp eq ptr %5, null
  %27 = select i1 %.not41, ptr @.str.105, ptr %5
  %28 = tail call i32 (ptr, ...) @error(ptr noundef %.0.i44, ptr noundef nonnull %27) #27
  br label %31

29:                                               ; preds = %22
  %30 = tail call fastcc i32 @index_mem(ptr noundef %0, ptr noundef %1, ptr noundef %13, i64 noundef %3, i32 noundef %4, ptr noundef %5, i32 noundef %6)
  br label %31

31:                                               ; preds = %_.exit45, %29, %_.exit
  %.1 = phi i32 [ -1, %_.exit ], [ -1, %_.exit45 ], [ %30, %29 ]
  tail call void @free(ptr noundef %13) #27
  br label %36

32:                                               ; preds = %10
  %33 = tail call ptr @xmmap(ptr noundef null, i64 noundef %3, i32 noundef 1, i32 noundef 2, i32 noundef %2, i64 noundef 0)
  %34 = tail call fastcc i32 @index_mem(ptr noundef %0, ptr noundef %1, ptr noundef %33, i64 noundef %3, i32 noundef %4, ptr noundef %5, i32 noundef %6)
  %35 = tail call i32 @munmap(ptr noundef %33, i64 noundef %3) #27
  br label %36

36:                                               ; preds = %31, %32, %8
  %.0 = phi i32 [ %.1, %31 ], [ %34, %32 ], [ %9, %8 ]
  ret i32 %.0
}